target datalayout = "e-m:e-p270:32:32-p271:32:32-p272:64:64-i64:64-i128:128-f80:128-n8:16:32:64-S128"
target triple = "x86_64-pc-linux-gnu"

%"class.icu_77::MaybeStackArray" = type <{ ptr, i32, i8, [40 x i8], [3 x i8] }>
%"class.icu_77::CharString" = type { %"class.icu_77::MaybeStackArray", i32, [4 x i8] }

; Function Attrs: mustprogress nounwind uwtable
define weak_odr noundef ptr @_ZNK6icu_7715MaybeStackArrayIcLi40EE8getAliasEv(ptr noundef nonnull align 8 dereferenceable(53) %0) #0 comdat align 2 {
  %2 = alloca ptr, align 8
  store ptr %0, ptr %2, align 8, !tbaa !3
  %3 = load ptr, ptr %2, align 8
  %4 = getelementptr inbounds nuw %"class.icu_77::MaybeStackArray", ptr %3, i32 0, i32 0
  %5 = load ptr, ptr %4, align 8, !tbaa !8
  ret ptr %5
}

; Function Attrs: inlinehint mustprogress nounwind uwtable
define internal noundef signext i8 @_ZL9U_SUCCESS10UErrorCode(i32 noundef %0) #2 {
  %2 = alloca i32, align 4
  store i32 %0, ptr %2, align 4, !tbaa !15
  %3 = load i32, ptr %2, align 4, !tbaa !15
  %4 = icmp sle i32 %3, 0
  %5 = zext i1 %4 to i8
  ret i8 %5
}

; Function Attrs: mustprogress uwtable
define noundef nonnull align 8 dereferenceable(60) ptr @_ZN6icu_7710CharString8copyFromERKS0_R10UErrorCode(ptr noundef nonnull align 8 dereferenceable(60) %0, ptr noundef nonnull align 8 dereferenceable(60) %1, ptr noundef nonnull align 4 dereferenceable(4) %2) #1 align 2 {
  %4 = alloca ptr, align 8
  %5 = alloca ptr, align 8
  %6 = alloca ptr, align 8
  store ptr %0, ptr %4, align 8, !tbaa !23
  store ptr %1, ptr %5, align 8, !tbaa !23
  store ptr %2, ptr %6, align 8, !tbaa !22
  %7 = load ptr, ptr %4, align 8
  %8 = load ptr, ptr %6, align 8, !tbaa !22
  %9 = load i32, ptr %8, align 4, !tbaa !15
  %10 = call noundef signext i8 @_ZL9U_SUCCESS10UErrorCode(i32 noundef %9)
  %11 = icmp ne i8 %10, 0
  br i1 %11, label %12, label %39

12:                                               ; preds = %3
  %13 = load ptr, ptr %5, align 8, !tbaa !23
  %14 = icmp ne ptr %7, %13
  br i1 %14, label %15, label %39

15:                                               ; preds = %12
  %16 = load ptr, ptr %5, align 8, !tbaa !23
  %17 = getelementptr inbounds nuw %"class.icu_77::CharString", ptr %16, i32 0, i32 1
  %18 = load i32, ptr %17, align 8, !tbaa !25
  %19 = add nsw i32 %18, 1
  %20 = load ptr, ptr %6, align 8, !tbaa !22
  %21 = call noundef signext i8 @_ZN6icu_7710CharString14ensureCapacityEiiR10UErrorCode(ptr noundef nonnull align 8 dereferenceable(60) %7, i32 noundef %19, i32 noundef 0, ptr noundef nonnull align 4 dereferenceable(4) %20)
  %22 = icmp ne i8 %21, 0
  br i1 %22, label %23, label %39

23:                                               ; preds = %15
  %24 = load ptr, ptr %5, align 8, !tbaa !23
  %25 = getelementptr inbounds nuw %"class.icu_77::CharString", ptr %24, i32 0, i32 1
  %26 = load i32, ptr %25, align 8, !tbaa !25
  %27 = getelementptr inbounds nuw %"class.icu_77::CharString", ptr %7, i32 0, i32 1
  store i32 %26, ptr %27, align 8, !tbaa !25
  br label %28

28:                                               ; preds = %23
  %29 = getelementptr inbounds nuw %"class.icu_77::CharString", ptr %7, i32 0, i32 0
  %30 = call noundef ptr @_ZNK6icu_7715MaybeStackArrayIcLi40EE8getAliasEv(ptr noundef nonnull align 8 dereferenceable(53) %29)
  %31 = load ptr, ptr %5, align 8, !tbaa !23
  %32 = getelementptr inbounds nuw %"class.icu_77::CharString", ptr %31, i32 0, i32 0
  %33 = call noundef ptr @_ZNK6icu_7715MaybeStackArrayIcLi40EE8getAliasEv(ptr noundef nonnull align 8 dereferenceable(53) %32)
  %34 = getelementptr inbounds nuw %"class.icu_77::CharString", ptr %7, i32 0, i32 1
  %35 = load i32, ptr %34, align 8, !tbaa !25
  %36 = add nsw i32 %35, 1
  %37 = sext i32 %36 to i64
  call void @llvm.memcpy.p0.p0.i64(ptr align 1 %30, ptr align 1 %33, i64 %37, i1 false)
  br label %38

38:                                               ; preds = %28
  br label %39

39:                                               ; preds = %38, %15, %12, %3
  ret ptr %7
}