; Function Attrs: mustprogress uwtable
define noundef nonnull align 8 dereferenceable(60) ptr @_ZN6icu_7710CharString8copyFromERKS0_R10UErrorCode(ptr noundef nonnull returned align 8 dereferenceable(60) %0, ptr noundef nonnull readonly align 8 dereferenceable(60) %1, ptr noundef nonnull align 4 captures(none) dereferenceable(4) %2) local_unnamed_addr #1 align 2 {
  %4 = load i32, ptr %2, align 4, !tbaa !13
  %5 = icmp slt i32 %4, 1
  %6 = icmp ne ptr %0, %1
  %or.cond = and i1 %6, %5
  br i1 %or.cond, label %7, label %19

7:                                                ; preds = %3
  %8 = getelementptr inbounds nuw i8, ptr %1, i64 56
  %9 = load i32, ptr %8, align 8, !tbaa !15
  %10 = add nsw i32 %9, 1
  %11 = tail call noundef signext i8 @_ZN6icu_7710CharString14ensureCapacityEiiR10UErrorCode(ptr noundef nonnull align 8 dereferenceable(60) %0, i32 noundef %10, i32 noundef 0, ptr noundef nonnull align 4 dereferenceable(4) %2)
  %.not = icmp eq i8 %11, 0
  br i1 %.not, label %19, label %12

12:                                               ; preds = %7
  %13 = load i32, ptr %8, align 8, !tbaa !15
  %14 = getelementptr inbounds nuw i8, ptr %0, i64 56
  store i32 %13, ptr %14, align 8, !tbaa !15
  %15 = load ptr, ptr %0, align 8, !tbaa !3
  %16 = load ptr, ptr %1, align 8, !tbaa !3
  %17 = add nsw i32 %13, 1
  %18 = sext i32 %17 to i64
  tail call void @llvm.memcpy.p0.p0.i64(ptr align 1 %15, ptr align 1 %16, i64 %18, i1 false)
  br label %19

19:                                               ; preds = %12, %7, %3
  ret ptr %0
}